; Function Attrs: mustprogress nofree norecurse nosync nounwind willreturn memory(argmem: readwrite) uwtable
define hidden void @_ZN19OpenColorIO_v2_4dev11GammaOpData12setDirectionENS_18TransformDirectionE(ptr nocapture noundef nonnull align 8 dereferenceable(272) %this, i32 noundef %dir) local_unnamed_addr #6 align 2 {
entry:
  %m_style.i = getelementptr inbounds i8, ptr %this, i64 168
  %0 = load i32, ptr %m_style.i, align 8
  %switch.tableidx = add i32 %0, -1
  %1 = icmp ult i32 %switch.tableidx, 9
  br i1 %1, label %switch.lookup, label %_ZNK19OpenColorIO_v2_4dev11GammaOpData12getDirectionEv.exit

switch.lookup:                                    ; preds = %entry
  %2 = zext nneg i32 %switch.tableidx to i64
  %switch.gep = getelementptr inbounds [9 x i32], ptr @switch.table._ZN19OpenColorIO_v2_4dev11GammaOpData12setDirectionENS_18TransformDirectionE, i64 0, i64 %2
  %switch.load = load i32, ptr %switch.gep, align 4
  br label %_ZNK19OpenColorIO_v2_4dev11GammaOpData12getDirectionEv.exit

_ZNK19OpenColorIO_v2_4dev11GammaOpData12getDirectionEv.exit: ; preds = %switch.lookup, %entry
  %retval.0.i = phi i32 [ 0, %entry ], [ %switch.load, %switch.lookup ]
  %cmp.not = icmp eq i32 %retval.0.i, %dir
  br i1 %cmp.not, label %if.end, label %if.then

if.then:                                          ; preds = %_ZNK19OpenColorIO_v2_4dev11GammaOpData12getDirectionEv.exit
  %3 = icmp ult i32 %0, 10
  br i1 %3, label %switch.lookup1, label %_ZN19OpenColorIO_v2_4dev11GammaOpData6invertEv.exit

switch.lookup1:                                   ; preds = %if.then
  %4 = zext nneg i32 %0 to i64
  %switch.gep2 = getelementptr inbounds [10 x i32], ptr @switch.table._ZN19OpenColorIO_v2_4dev11GammaOpData12setDirectionENS_18TransformDirectionE.4, i64 0, i64 %4
  %switch.load3 = load i32, ptr %switch.gep2, align 4
  br label %_ZN19OpenColorIO_v2_4dev11GammaOpData6invertEv.exit

_ZN19OpenColorIO_v2_4dev11GammaOpData6invertEv.exit: ; preds = %switch.lookup1, %if.then
  %invStyle.0.i = phi i32 [ 0, %if.then ], [ %switch.load3, %switch.lookup1 ]
  store i32 %invStyle.0.i, ptr %m_style.i, align 8
  br label %if.end

if.end:                                           ; preds = %_ZN19OpenColorIO_v2_4dev11GammaOpData6invertEv.exit, %_ZNK19OpenColorIO_v2_4dev11GammaOpData12getDirectionEv.exit
  ret void
}